BL51 BANKED LINKER/LOCATER V6.22                                                        12/26/2013  14:36:30  PAGE 1


BL51 BANKED LINKER/LOCATER V6.22, INVOKED BY:
C:\KEIL\C51\BIN\BL51.EXE STARTUP.obj, main.obj, T6963.obj, uart.obj, ADC0.obj, DAC.obj, delay.obj, init.obj, PNL_30A.obj
>> , key_map.obj TO test RAMSIZE (256)


MEMORY MODEL: SMALL


INPUT MODULES INCLUDED:
  STARTUP.obj (?C_STARTUP)
  main.obj (MAIN)
  T6963.obj (T6963)
  uart.obj (UART)
  ADC0.obj (ADC0)
  DAC.obj (DAC)
  delay.obj (DELAY)
  init.obj (INIT)
  PNL_30A.obj (PNL_30A)
  key_map.obj (KEY_MAP)
  C:\KEIL\C51\LIB\C51S.LIB (?C_INIT)
  C:\KEIL\C51\LIB\C51S.LIB (?C?COPY)
  C:\KEIL\C51\LIB\C51S.LIB (?C?SCDIV)
  C:\KEIL\C51\LIB\C51S.LIB (?C?CLDPTR)
  C:\KEIL\C51\LIB\C51S.LIB (?C?CSTOPTR)
  C:\KEIL\C51\LIB\C51S.LIB (?C?IMUL)
  C:\KEIL\C51\LIB\C51S.LIB (?C?UIDIV)
  C:\KEIL\C51\LIB\C51S.LIB (?C?LMUL)
  C:\KEIL\C51\LIB\C51S.LIB (?C?SLDIV)
  C:\KEIL\C51\LIB\C51S.LIB (?C?CCASE)
  C:\KEIL\C51\LIB\C51S.LIB (VSPRINTF)
  C:\KEIL\C51\LIB\C51S.LIB (?C?ULDIV)
  C:\KEIL\C51\LIB\C51S.LIB (PRINTF)
  C:\KEIL\C51\LIB\C51S.LIB (?C?CLDOPTR)
  C:\KEIL\C51\LIB\C51S.LIB (?C?CSTPTR)
  C:\KEIL\C51\LIB\C51S.LIB (?C?PLDIIDATA)


LINK MAP OF MODULE:  test (?C_STARTUP)


            TYPE    BASE      LENGTH    RELOCATION   SEGMENT NAME
            -----------------------------------------------------

            * * * * * * *   D A T A   M E M O R Y   * * * * * * *
            REG     0000H     0008H     ABSOLUTE     "REG BANK 0"
            DATA    0008H     0007H     UNIT         ?DT?PNL_30A
            DATA    000FH     0005H     UNIT         ?DT?_T6963_PUTS?T6963
            DATA    0014H     0004H     UNIT         ?DT?_DRAW_VERTICAL?T6963
            DATA    0018H     0004H     UNIT         ?DT?DAC
            DATA    001CH     0002H     UNIT         ?DT?ADC0
            DATA    001EH     0001H     UNIT         ?DT?T6963
                    001FH     0001H                  *** GAP ***
            BIT     0020H.0   0001H.2   UNIT         _BIT_GROUP_
            BIT     0021H.2   0000H.1   UNIT         ?BI?ADC0
                    0021H.3   0000H.5                *** GAP ***
            DATA    0022H     005EH     UNIT         _DATA_GROUP_
            IDATA   0080H     0001H     UNIT         ?STACK

BL51 BANKED LINKER/LOCATER V6.22                                                      12/26/2013  14:36:30  PAGE 2


            * * * * * * *  X D A T A   M E M O R Y  * * * * * * *
            XDATA   0000H     0032H     UNIT         _XDATA_GROUP_

            * * * * * * *   C O D E   M E M O R Y   * * * * * * *
            CODE    0000H     0003H     ABSOLUTE     
            CODE    0003H     0003H     ABSOLUTE     
            CODE    0006H     0060H     UNIT         ?PR?_T6963_PRINTF?T6963
            CODE    0066H     0015H     UNIT         ?PR?CHECK_STATE_0_1?T6963
            CODE    007BH     0003H     ABSOLUTE     
            CODE    007EH     0005H     UNIT         ?PR?NO_CURSOR?T6963
            CODE    0083H     0003H     ABSOLUTE     
            CODE    0086H     04BEH     UNIT         ?PR?MAIN?MAIN
            CODE    0544H     035CH     UNIT         ?PR?PRINTF?PRINTF
            CODE    08A0H     034CH     UNIT         ?C?LIB_CODE
            CODE    0BECH     0200H     UNIT         ?CO?DAC
            CODE    0DECH     00B1H     UNIT         ?PR?_PRINT_NUM?MAIN
            CODE    0E9DH     008FH     UNIT         ?PR?EXTI0_IRQHANDLER?PNL_30A
            CODE    0F2CH     008CH     UNIT         ?C_C51STARTUP
            CODE    0FB8H     0084H     UNIT         ?CO?MAIN
            CODE    103CH     007CH     UNIT         ?CO?KEY_MAP
            CODE    10B8H     0053H     UNIT         ?PR?SET_DACS_SIN_COS?DAC
            CODE    110BH     004AH     UNIT         ?PR?_ITOATEST?MAIN
            CODE    1155H     0049H     UNIT         ?PR?_T6963_PUTCHAR?T6963
            CODE    119EH     0044H     UNIT         ?C?LDIV
            CODE    11E2H     0041H     UNIT         ?PR?_PNL_30A_LED_SET?PNL_30A
            CODE    1223H     003DH     UNIT         ?PR?_T6963_PUTS?T6963
            CODE    1260H     003DH     UNIT         ?PR?TIMER4_ISR?DAC
            CODE    129DH     0039H     UNIT         ?PR?T6963_INIT_LCD?T6963
            CODE    12D6H     0037H     UNIT         ?PR?PNL_30A_BUZZER_OFF?PNL_30A
            CODE    130DH     0037H     UNIT         ?PR?PNL_30A_BUZZER_ON?PNL_30A
            CODE    1344H     0032H     UNIT         ?PR?_SET_ADDRESS?T6963
            CODE    1376H     002EH     UNIT         ?PR?PLL_INIT?INIT
            CODE    13A4H     002EH     UNIT         ?PR?_VSPRINTF?VSPRINTF
            CODE    13D2H     002DH     UNIT         ?PR?_DELAY_MS?DELAY
            CODE    13FFH     0026H     UNIT         ?PR?ADC0_ISR?ADC0
            CODE    1425H     0025H     UNIT         ?PR?UART0_INIT?UART
            CODE    144AH     0025H     UNIT         ?PR?_TIMER4_INIT?DAC
            CODE    146FH     0023H     UNIT         ?PR?PORT_INIT?INIT
            CODE    1492H     001FH     UNIT         ?PR?_DRAW_HORIZON?T6963
            CODE    14B1H     001FH     UNIT         ?PR?_DRAW_VERTICAL?T6963
            CODE    14D0H     001DH     UNIT         ?PR?T6963_CLEAR_GRAPH?T6963
            CODE    14EDH     001DH     UNIT         ?PR?_ADC0_START?ADC0
            CODE    150AH     001CH     UNIT         ?PR?T6963_CLEAR_TEXT_SPECIAL?T6963
            CODE    1526H     001BH     UNIT         ?PR?_SET_DAC_FREQUENT?DAC
            CODE    1541H     001AH     UNIT         ?PR?T6963_CLEAR_TEXT?T6963
            CODE    155BH     001AH     UNIT         ?PR?_PUTCHAR?UART
            CODE    1575H     001AH     UNIT         ?C_INITSEG
            CODE    158FH     0019H     UNIT         ?PR?_WR_DATA?T6963
            CODE    15A8H     0019H     UNIT         ?PR?_T6963_DRAW_POINT?T6963
            CODE    15C1H     0019H     UNIT         ?PR?_T6963_ERASE_POINT?T6963
            CODE    15DAH     0019H     UNIT         ?PR?_OPEN_CURSOR?T6963
            CODE    15F3H     0019H     UNIT         ?PR?ADC0_INIT?ADC0
            CODE    160CH     0014H     UNIT         ?PR?_WR_COM?T6963
            CODE    1620H     0011H     UNIT         ?PR?ADC0_GET?ADC0
            CODE    1631H     0011H     UNIT         ?PR?DAC1_INIT?DAC
            CODE    1642H     0011H     UNIT         ?PR?EMIF_INIT?INIT
            CODE    1653H     0011H     UNIT         ?PR?PNL_30A_KEY_RETURN?PNL_30A
BL51 BANKED LINKER/LOCATER V6.22                                                      12/26/2013  14:36:30  PAGE 3


            CODE    1664H     0010H     UNIT         ?PR?DAC0_INIT?DAC
            CODE    1674H     000FH     UNIT         ?PR?_SET_DAC0?DAC
            CODE    1683H     000FH     UNIT         ?PR?_SET_DAC1?DAC
            CODE    1692H     000FH     UNIT         ?PR?PNL_30A_CONFIGURATION?PNL_30A
            CODE    16A1H     000DH     UNIT         ?PR?_WR_COM_2DATA?T6963
            CODE    16AEH     000CH     UNIT         ?PR?PNL_30A_KEY_GET?PNL_30A
            CODE    16BAH     0009H     UNIT         ?PR?_WR_COM_DATA?T6963
            CODE    16C3H     0009H     UNIT         ?PR?RD_DATA?T6963
            CODE    16CCH     0009H     UNIT         ?PR?T6963_LCD_CLR?T6963
            CODE    16D5H     0009H     UNIT         ?PR?_SET_COORDINATE?T6963
            CODE    16DEH     0008H     UNIT         ?PR?CHECK_STATE_2?T6963
            CODE    16E6H     0008H     UNIT         ?PR?CHECK_STATE_3?T6963
            CODE    16EEH     0008H     UNIT         ?PR?CHECK_STATE_5?T6963
            CODE    16F6H     0008H     UNIT         ?PR?CHECK_STATE_6?T6963
            CODE    16FEH     0008H     UNIT         ?PR?CHECK_STATE_7?T6963
            CODE    1706H     0004H     UNIT         ?PR?T6963_LCD_BACK?T6963
            CODE    170AH     0001H     UNIT         ?PR?RUN?MAIN



OVERLAY MAP OF MODULE:   test (?C_STARTUP)


SEGMENT                                       BIT_GROUP          DATA_GROUP          XDATA_GROUP
  +--> CALLED SEGMENT                      START    LENGTH     START    LENGTH     START    LENGTH
--------------------------------------------------------------------------------------------------
?C_C51STARTUP                              -----    -----      -----    -----      -----    -----
  +--> ?PR?MAIN?MAIN
  +--> ?C_INITSEG

?PR?MAIN?MAIN                              0020H.0  0000H.1    0022H    002BH      -----    -----
  +--> ?CO?MAIN
  +--> ?PR?PLL_INIT?INIT
  +--> ?PR?PORT_INIT?INIT
  +--> ?PR?EMIF_INIT?INIT
  +--> ?PR?UART0_INIT?UART
  +--> ?PR?_TIMER4_INIT?DAC
  +--> ?PR?PNL_30A_CONFIGURATION?PNL_30A
  +--> ?PR?T6963_INIT_LCD?T6963
  +--> ?PR?T6963_LCD_CLR?T6963
  +--> ?PR?_T6963_PRINTF?T6963
  +--> ?PR?_DRAW_HORIZON?T6963
  +--> ?PR?_SET_COORDINATE?T6963
  +--> ?PR?_OPEN_CURSOR?T6963
  +--> ?PR?_PRINT_NUM?MAIN
  +--> ?PR?PNL_30A_KEY_GET?PNL_30A
  +--> ?PR?NO_CURSOR?T6963
  +--> ?PR?_ITOATEST?MAIN
  +--> ?PR?_DELAY_MS?DELAY
  +--> ?PR?PNL_30A_KEY_RETURN?PNL_30A

?PR?T6963_INIT_LCD?T6963                   -----    -----      -----    -----      -----    -----
  +--> ?PR?_WR_COM_2DATA?T6963
  +--> ?PR?_WR_COM?T6963
  +--> ?PR?T6963_CLEAR_TEXT?T6963
  +--> ?PR?T6963_CLEAR_GRAPH?T6963
  +--> ?PR?T6963_CLEAR_TEXT_SPECIAL?T6963
BL51 BANKED LINKER/LOCATER V6.22                                                      12/26/2013  14:36:30  PAGE 4



?PR?_WR_COM_2DATA?T6963                    -----    -----      -----    -----      -----    -----
  +--> ?PR?CHECK_STATE_0_1?T6963

?PR?_WR_COM?T6963                          -----    -----      -----    -----      -----    -----
  +--> ?PR?_WR_COM_2DATA?T6963
  +--> ?PR?CHECK_STATE_0_1?T6963

?PR?T6963_CLEAR_TEXT?T6963                 -----    -----      -----    -----      -----    -----
  +--> ?PR?_WR_COM?T6963
  +--> ?PR?_WR_DATA?T6963

?PR?_WR_DATA?T6963                         -----    -----      -----    -----      -----    -----
  +--> ?PR?CHECK_STATE_0_1?T6963

?PR?T6963_CLEAR_GRAPH?T6963                -----    -----      -----    -----      -----    -----
  +--> ?PR?_WR_COM?T6963
  +--> ?PR?_WR_DATA?T6963

?PR?T6963_CLEAR_TEXT_SPECIAL?T6963         -----    -----      -----    -----      -----    -----
  +--> ?PR?_WR_COM?T6963
  +--> ?PR?_WR_DATA?T6963

?PR?T6963_LCD_CLR?T6963                    -----    -----      -----    -----      -----    -----
  +--> ?PR?T6963_CLEAR_TEXT?T6963
  +--> ?PR?T6963_CLEAR_TEXT_SPECIAL?T6963
  +--> ?PR?T6963_CLEAR_GRAPH?T6963

?PR?_T6963_PRINTF?T6963                    -----    -----      004DH    0019H      0000H    0032H
  +--> ?PR?_VSPRINTF?VSPRINTF
  +--> ?PR?_T6963_PUTCHAR?T6963

?PR?_VSPRINTF?VSPRINTF                     -----    -----      0066H    0006H      -----    -----
  +--> ?PR?PRINTF?PRINTF

?PR?PRINTF?PRINTF                          0020H.1  0001H.1    006CH    0014H      -----    -----
  +--> ?PR?_PUTCHAR?UART

?PR?_T6963_PUTCHAR?T6963                   -----    -----      -----    -----      -----    -----
  +--> ?PR?_SET_ADDRESS?T6963
  +--> ?PR?_WR_COM_DATA?T6963

?PR?_SET_ADDRESS?T6963                     -----    -----      -----    -----      -----    -----
  +--> ?PR?_WR_COM_2DATA?T6963

?PR?_WR_COM_DATA?T6963                     -----    -----      -----    -----      -----    -----
  +--> ?PR?CHECK_STATE_0_1?T6963

?PR?_DRAW_HORIZON?T6963                    -----    -----      004DH    0004H      -----    -----
  +--> ?PR?_T6963_DRAW_POINT?T6963

?PR?_T6963_DRAW_POINT?T6963                -----    -----      -----    -----      -----    -----
  +--> ?PR?_SET_ADDRESS?T6963
  +--> ?PR?_WR_COM?T6963

?PR?_OPEN_CURSOR?T6963                     -----    -----      -----    -----      -----    -----
  +--> ?PR?_WR_COM?T6963
BL51 BANKED LINKER/LOCATER V6.22                                                      12/26/2013  14:36:30  PAGE 5


  +--> ?PR?_WR_COM_2DATA?T6963

?PR?_PRINT_NUM?MAIN                        -----    -----      004DH    0006H      -----    -----
  +--> ?PR?_SET_COORDINATE?T6963
  +--> ?PR?_T6963_PUTCHAR?T6963

?PR?NO_CURSOR?T6963                        -----    -----      -----    -----      -----    -----
  +--> ?PR?_WR_COM?T6963

?PR?_ITOATEST?MAIN                         -----    -----      004DH    000AH      -----    -----

*** NEW ROOT ***************************************************

?PR?TIMER4_ISR?DAC                         -----    -----      -----    -----      -----    -----
  +--> ?PR?SET_DACS_SIN_COS?DAC

?PR?SET_DACS_SIN_COS?DAC                   -----    -----      -----    -----      -----    -----
  +--> ?CO?DAC

*** NEW ROOT ***************************************************

?PR?EXTI0_IRQHANDLER?PNL_30A               -----    -----      -----    -----      -----    -----
  +--> ?CO?KEY_MAP



SYMBOL TABLE OF MODULE:  test (?C_STARTUP)

  VALUE           TYPE          NAME
  ----------------------------------

  -------         MODULE        ?C_STARTUP
  C:0F2CH         SEGMENT       ?C_C51STARTUP
  I:0080H         SEGMENT       ?STACK
  C:0000H         PUBLIC        ?C_STARTUP
  D:00E0H         SYMBOL        ACC
  D:00F0H         SYMBOL        B
  D:0083H         SYMBOL        DPH
  D:0082H         SYMBOL        DPL
  N:0000H         SYMBOL        IBPSTACK
  N:0100H         SYMBOL        IBPSTACKTOP
  N:0080H         SYMBOL        IDATALEN
  C:0F2FH         SYMBOL        IDATALOOP
  N:0000H         SYMBOL        PBPSTACK
  N:0100H         SYMBOL        PBPSTACKTOP
  N:0000H         SYMBOL        PDATALEN
  N:0000H         SYMBOL        PDATASTART
  N:0000H         SYMBOL        PPAGE
  N:0000H         SYMBOL        PPAGEENABLE
  D:00A0H         SYMBOL        PPAGE_SFR
  D:0081H         SYMBOL        SP
  C:0F2CH         SYMBOL        STARTUP1
  N:0000H         SYMBOL        XBPSTACK
  N:0000H         SYMBOL        XBPSTACKTOP
  N:0000H         SYMBOL        XDATALEN
  N:0000H         SYMBOL        XDATASTART
  C:0000H         LINE#         126
BL51 BANKED LINKER/LOCATER V6.22                                                      12/26/2013  14:36:30  PAGE 6


  C:0F2CH         LINE#         133
  C:0F2EH         LINE#         134
  C:0F2FH         LINE#         135
  C:0F30H         LINE#         136
  C:0F32H         LINE#         185
  C:0F35H         LINE#         196
  -------         ENDMOD        ?C_STARTUP

  -------         MODULE        MAIN
  C:0000H         SYMBOL        _ICE_DUMMY_
  D:00FFH         PUBLIC        WDTCN
  B:00A8H.7       PUBLIC        EA
  D:0084H         PUBLIC        SFRPAGE
  C:0086H         PUBLIC        main
  C:170AH         PUBLIC        Run
  C:102CH         SYMBOL        _?ix1000
  C:110BH         PUBLIC        _itoaTest
  C:0DECH         PUBLIC        _print_num
  -------         PROC          MAIN
  -------         DO            
  D:0022H         SYMBOL        t
  D:0023H         SYMBOL        param
  B:0020H.0       SYMBOL        run_status
  D:0033H         SYMBOL        cursor_pos
  D:0034H         SYMBOL        cur_time1
  D:0036H         SYMBOL        cur_time2
  D:0038H         SYMBOL        cur_speed1
  D:003AH         SYMBOL        cur_speed2
  D:003CH         SYMBOL        m
  D:0007H         SYMBOL        n
  D:003DH         SYMBOL        temp_a
  -------         ENDDO         
  C:0086H         LINE#         27
  C:0086H         LINE#         28
  C:0086H         LINE#         31
  C:0099H         LINE#         32
  C:009BH         LINE#         33
  C:009EH         LINE#         38
  C:00A1H         LINE#         39
  C:00A4H         LINE#         41
  C:00A7H         LINE#         42
  C:00AAH         LINE#         44
  C:00ADH         LINE#         45
  C:00B0H         LINE#         50
  C:00B7H         LINE#         52
  C:00BAH         LINE#         53
  C:00BDH         LINE#         55
  C:00C0H         LINE#         57
  C:00C3H         LINE#         58
  C:00C5H         LINE#         62
  C:00C8H         LINE#         63
  C:00D1H         LINE#         64
  C:00DAH         LINE#         65
  C:00E3H         LINE#         66
  C:00EAH         LINE#         67
  C:00F3H         LINE#         68
  C:00FCH         LINE#         69
BL51 BANKED LINKER/LOCATER V6.22                                                      12/26/2013  14:36:30  PAGE 7


  C:0105H         LINE#         70
  C:010EH         LINE#         71
  C:0117H         LINE#         72
  C:0120H         LINE#         73
  C:0129H         LINE#         75
  C:0129H         LINE#         76
  C:0129H         LINE#         77
  C:012FH         LINE#         78
  C:012FH         LINE#         79
  C:0138H         LINE#         80
  C:0146H         LINE#         81
  C:015BH         LINE#         82
  C:0174H         LINE#         84
  C:0179H         LINE#         85
  C:01BBH         LINE#         86
  C:01BBH         LINE#         87
  C:01EAH         LINE#         88
  C:0219H         LINE#         89
  C:0248H         LINE#         90
  C:0277H         LINE#         91
  C:02A6H         LINE#         92
  C:02D5H         LINE#         93
  C:0304H         LINE#         94
  C:0333H         LINE#         95
  C:0362H         LINE#         96
  C:0391H         LINE#         98
  C:03A0H         LINE#         99
  C:03B0H         LINE#         100
  C:03C1H         LINE#         101
  C:03D7H         LINE#         103
  C:040CH         LINE#         104
  C:0441H         LINE#         106
  C:0441H         LINE#         107
  C:0441H         LINE#         108
  C:0443H         LINE#         109
  C:044CH         LINE#         110
  C:0491H         LINE#         111
  C:04C2H         LINE#         112
  C:04C2H         LINE#         113
  C:04C2H         LINE#         114
  C:04C2H         LINE#         115
  C:04C2H         LINE#         117
  C:04C2H         LINE#         118
  C:04C5H         LINE#         119
  C:04D2H         LINE#         120
  C:04DFH         LINE#         121
  C:04E8H         LINE#         122
  C:04FBH         LINE#         123
  C:04FBH         LINE#         124
  C:0502H         LINE#         125
  C:050DH         LINE#         126
  C:0517H         LINE#         127
  C:051FH         LINE#         128
  C:051FH         LINE#         129
  C:052DH         LINE#         131
  C:0532H         LINE#         132
  C:053FH         LINE#         133
BL51 BANKED LINKER/LOCATER V6.22                                                      12/26/2013  14:36:30  PAGE 8


  C:053FH         LINE#         134
  C:053FH         LINE#         135
  -------         ENDPROC       MAIN
  -------         PROC          _PRINT_NUM
  D:004DH         SYMBOL        str
  -------         DO            
  D:0050H         SYMBOL        m
  D:0051H         SYMBOL        n
  D:0052H         SYMBOL        state
  -------         ENDDO         
  C:0DECH         LINE#         144
  C:0DF2H         LINE#         145
  C:0DF2H         LINE#         149
  C:0DF5H         LINE#         150
  C:0DF5H         LINE#         151
  C:0E00H         LINE#         152
  C:0E04H         LINE#         153
  C:0E0CH         LINE#         154
  C:0E0FH         LINE#         155
  C:0E11H         LINE#         156
  C:0E11H         LINE#         157
  C:0E41H         LINE#         158
  C:0E48H         LINE#         160
  C:0E48H         LINE#         161
  C:0E78H         LINE#         162
  C:0E7BH         LINE#         163
  C:0E7BH         LINE#         164
  C:0E83H         LINE#         165
  C:0E8EH         LINE#         166
  C:0E9CH         LINE#         167
  -------         ENDPROC       _PRINT_NUM
  -------         PROC          RUN
  C:170AH         LINE#         170
  C:170AH         LINE#         171
  C:170AH         LINE#         177
  -------         ENDPROC       RUN
  -------         PROC          _ITOATEST
  D:004DH         SYMBOL        num
  D:004FH         SYMBOL        str
  -------         DO            
  D:0052H         SYMBOL        i
  D:0053H         SYMBOL        temp
  -------         ENDDO         
  C:110BH         LINE#         179
  C:1115H         LINE#         180
  C:1115H         LINE#         184
  C:1118H         LINE#         185
  C:1118H         LINE#         186
  C:113EH         LINE#         187
  C:114DH         LINE#         188
  C:1154H         LINE#         189
  -------         ENDPROC       _ITOATEST
  -------         ENDMOD        MAIN

  -------         MODULE        T6963
  C:0000H         SYMBOL        _ICE_DUMMY_
  C:1492H         PUBLIC        _Draw_horizon
BL51 BANKED LINKER/LOCATER V6.22                                                      12/26/2013  14:36:30  PAGE 9


  C:007EH         PUBLIC        NO_Cursor
  C:150AH         PUBLIC        T6963_clear_text_special
  C:16BAH         PUBLIC        _wr_com_data
  C:1155H         PUBLIC        _T6963_putchar
  C:1615H         PUBLIC        _wr_com
  C:14D0H         PUBLIC        T6963_clear_graph
  C:16DEH         PUBLIC        check_state_2
  C:16E6H         PUBLIC        check_state_3
  C:136BH         PUBLIC        _set_address
  C:16EEH         PUBLIC        check_state_5
  C:16F6H         PUBLIC        check_state_6
  C:16FEH         PUBLIC        check_state_7
  C:0006H         PUBLIC        _T6963_printf
  C:0070H         PUBLIC        check_state_0_1
  C:15C1H         PUBLIC        _T6963_erase_point
  C:1706H         PUBLIC        T6963_lcd_back
  C:16A1H         PUBLIC        _wr_com_2data
  C:1541H         PUBLIC        T6963_clear_text
  C:15A8H         PUBLIC        _T6963_draw_point
  C:14B1H         PUBLIC        _Draw_vertical
  C:16C3H         PUBLIC        rd_data
  C:129DH         PUBLIC        T6963_init_lcd
  C:1223H         PUBLIC        _T6963_puts
  C:16D5H         PUBLIC        _set_coordinate
  D:001EH         SYMBOL        show_charater_number
  C:16CCH         PUBLIC        T6963_lcd_clr
  C:158FH         PUBLIC        _wr_data
  C:15DAH         PUBLIC        _Open_Cursor
  C:006CH         SYMBOL        L?0082
  -------         PROC          L?0081
  -------         ENDPROC       L?0081
  C:006CH         SYMBOL        L?0082
  -------         PROC          CHECK_STATE_0_1
  C:0070H         LINE#         40
  C:0070H         LINE#         41
  C:0070H         LINE#         42
  C:007AH         LINE#         43
  -------         ENDPROC       CHECK_STATE_0_1
  -------         PROC          CHECK_STATE_2
  C:16DEH         LINE#         45
  C:16DEH         LINE#         46
  C:16DEH         LINE#         47
  C:16E5H         LINE#         48
  -------         ENDPROC       CHECK_STATE_2
  -------         PROC          CHECK_STATE_3
  C:16E6H         LINE#         50
  C:16E6H         LINE#         51
  C:16E6H         LINE#         52
  C:16EDH         LINE#         53
  -------         ENDPROC       CHECK_STATE_3
  -------         PROC          CHECK_STATE_5
  C:16EEH         LINE#         55
  C:16EEH         LINE#         56
  C:16EEH         LINE#         57
  C:16F5H         LINE#         58
  -------         ENDPROC       CHECK_STATE_5
  -------         PROC          CHECK_STATE_6
BL51 BANKED LINKER/LOCATER V6.22                                                      12/26/2013  14:36:30  PAGE 10


  C:16F6H         LINE#         60
  C:16F6H         LINE#         61
  C:16F6H         LINE#         62
  C:16FDH         LINE#         63
  -------         ENDPROC       CHECK_STATE_6
  -------         PROC          CHECK_STATE_7
  C:16FEH         LINE#         65
  C:16FEH         LINE#         66
  C:16FEH         LINE#         67
  C:1705H         LINE#         68
  -------         ENDPROC       CHECK_STATE_7
  -------         PROC          _WR_COM_2DATA
  D:0006H         SYMBOL        cmd
  D:0005H         SYMBOL        data1
  D:0003H         SYMBOL        data2
  C:16A1H         LINE#         70
  C:16A1H         LINE#         71
  C:16A1H         LINE#         72
  C:16A1H         LINE#         73
  C:16A1H         LINE#         74
  C:16A4H         LINE#         75
  C:16A5H         LINE#         76
  C:16A8H         LINE#         77
  C:16ADH         LINE#         78
  -------         ENDPROC       _WR_COM_2DATA
  -------         PROC          _WR_COM_DATA
  D:0006H         SYMBOL        cmd
  D:0005H         SYMBOL        para
  C:16BAH         LINE#         80
  C:16BAH         LINE#         81
  C:16BAH         LINE#         82
  C:16BAH         LINE#         83
  C:16BAH         LINE#         84
  C:16BDH         LINE#         85
  C:16C2H         LINE#         86
  -------         ENDPROC       _WR_COM_DATA
  C:160DH         SYMBOL        L?0080
  -------         PROC          L?0079
  -------         ENDPROC       L?0079
  C:160DH         SYMBOL        L?0080
  -------         PROC          _WR_COM
  D:0006H         SYMBOL        Cmd
  C:1615H         LINE#         88
  C:1617H         LINE#         89
  C:1617H         LINE#         90
  C:161AH         LINE#         91
  C:161FH         LINE#         92
  -------         ENDPROC       _WR_COM
  -------         PROC          _WR_DATA
  D:0006H         SYMBOL        ucData
  -------         DO            
  D:0004H         SYMBOL        i
  -------         ENDDO         
  C:158FH         LINE#         94
  C:1591H         LINE#         95
  C:1591H         LINE#         97
  C:159FH         LINE#         98
BL51 BANKED LINKER/LOCATER V6.22                                                      12/26/2013  14:36:30  PAGE 11


  C:15A2H         LINE#         99
  C:15A7H         LINE#         100
  -------         ENDPROC       _WR_DATA
  -------         PROC          RD_DATA
  C:16C3H         LINE#         102
  C:16C3H         LINE#         103
  C:16C3H         LINE#         104
  C:16C6H         LINE#         105
  C:16CBH         LINE#         106
  -------         ENDPROC       RD_DATA
  -------         PROC          L?0078
  -------         ENDPROC       L?0078
  -------         PROC          _SET_ADDRESS
  D:0006H         SYMBOL        address
  C:136BH         LINE#         108
  C:136BH         LINE#         109
  C:136BH         LINE#         110
  -------         ENDPROC       _SET_ADDRESS
  -------         PROC          T6963_CLEAR_GRAPH
  -------         DO            
  D:0002H         SYMBOL        i
  -------         ENDDO         
  C:14D0H         LINE#         114
  C:14D0H         LINE#         115
  C:14D0H         LINE#         117
  C:14D2H         LINE#         118
  C:14D5H         LINE#         119
  C:14D8H         LINE#         120
  C:14D8H         LINE#         121
  C:14DDH         LINE#         122
  C:14E8H         LINE#         123
  -------         ENDPROC       T6963_CLEAR_GRAPH
  -------         PROC          T6963_CLEAR_TEXT_SPECIAL
  -------         DO            
  D:0003H         SYMBOL        i
  -------         ENDDO         
  C:150AH         LINE#         126
  C:150AH         LINE#         127
  C:150AH         LINE#         129
  C:150CH         LINE#         130
  C:150FH         LINE#         131
  C:1511H         LINE#         132
  C:1511H         LINE#         133
  C:1516H         LINE#         134
  C:151DH         LINE#         135
  C:1522H         LINE#         136
  C:1525H         LINE#         137
  -------         ENDPROC       T6963_CLEAR_TEXT_SPECIAL
  -------         PROC          T6963_LCD_CLR
  C:16CCH         LINE#         139
  C:16CCH         LINE#         140
  C:16CCH         LINE#         141
  C:16CFH         LINE#         142
  C:16D2H         LINE#         143
  -------         ENDPROC       T6963_LCD_CLR
  -------         PROC          T6963_LCD_BACK
  C:1706H         LINE#         146
BL51 BANKED LINKER/LOCATER V6.22                                                      12/26/2013  14:36:30  PAGE 12


  C:1706H         LINE#         147
  C:1706H         LINE#         148
  C:1709H         LINE#         149
  -------         ENDPROC       T6963_LCD_BACK
  -------         PROC          T6963_INIT_LCD
  C:129DH         LINE#         151
  C:129DH         LINE#         152
  C:129DH         LINE#         153
  C:12A5H         LINE#         154
  C:12ACH         LINE#         155
  C:12B5H         LINE#         156
  C:12BEH         LINE#         158
  C:12C3H         LINE#         159
  C:12C8H         LINE#         163
  C:12CDH         LINE#         164
  C:12D0H         LINE#         165
  C:12D3H         LINE#         166
  -------         ENDPROC       T6963_INIT_LCD
  -------         PROC          _T6963_DRAW_POINT
  D:0003H         SYMBOL        x
  D:0005H         SYMBOL        y
  -------         DO            
  D:0002H         SYMBOL        command
  -------         ENDDO         
  C:15A8H         LINE#         168
  C:15AAH         LINE#         169
  C:15AAH         LINE#         171
  C:15B9H         LINE#         172
  C:15BCH         LINE#         173
  -------         ENDPROC       _T6963_DRAW_POINT
  -------         PROC          _T6963_ERASE_POINT
  D:0003H         SYMBOL        x
  D:0005H         SYMBOL        y
  -------         DO            
  D:0002H         SYMBOL        command
  -------         ENDDO         
  C:15C1H         LINE#         176
  C:15C3H         LINE#         177
  C:15C3H         LINE#         179
  C:15D2H         LINE#         180
  C:15D5H         LINE#         181
  -------         ENDPROC       _T6963_ERASE_POINT
  -------         PROC          T6963_CLEAR_TEXT
  -------         DO            
  D:0003H         SYMBOL        i
  -------         ENDDO         
  C:1541H         LINE#         185
  C:1541H         LINE#         186
  C:1541H         LINE#         188
  C:1543H         LINE#         189
  C:1546H         LINE#         190
  C:1546H         LINE#         191
  C:1546H         LINE#         192
  C:154BH         LINE#         193
  C:1552H         LINE#         194
  C:1557H         LINE#         195
  C:155AH         LINE#         196
BL51 BANKED LINKER/LOCATER V6.22                                                      12/26/2013  14:36:30  PAGE 13


  -------         ENDPROC       T6963_CLEAR_TEXT
  -------         PROC          _T6963_PUTCHAR
  D:0004H         SYMBOL        character
  C:1155H         LINE#         197
  C:1157H         LINE#         198
  C:1157H         LINE#         199
  C:115AH         LINE#         200
  C:1167H         LINE#         201
  C:116CH         LINE#         203
  C:116FH         LINE#         204
  C:1177H         LINE#         206
  C:117AH         LINE#         207
  C:117AH         LINE#         208
  C:1183H         LINE#         209
  C:1187H         LINE#         210
  C:1189H         LINE#         211
  C:1189H         LINE#         212
  C:1192H         LINE#         213
  C:119BH         LINE#         214
  C:119BH         LINE#         215
  C:119DH         LINE#         217
  -------         ENDPROC       _T6963_PUTCHAR
  -------         PROC          _T6963_PUTS
  D:000FH         SYMBOL        s
  -------         DO            
  D:0012H         SYMBOL        i
  -------         ENDDO         
  C:1223H         LINE#         254
  C:1229H         LINE#         255
  C:1229H         LINE#         256
  C:122EH         LINE#         257
  C:123EH         LINE#         258
  C:1256H         LINE#         259
  C:125BH         LINE#         260
  C:125FH         LINE#         261
  -------         ENDPROC       _T6963_PUTS
  -------         PROC          _T6963_PRINTF
  D:004DH         SYMBOL        format
  -------         DO            
  D:0050H         SYMBOL        ellipsis_15
  X:0000H         SYMBOL        obuffer
  D:005FH         SYMBOL        i
  D:0061H         SYMBOL        chars
  D:0063H         SYMBOL        ap
  -------         ENDDO         
  C:0006H         LINE#         263
  C:000CH         LINE#         264
  C:000CH         LINE#         266
  C:0011H         LINE#         268
  C:0019H         LINE#         269
  C:0035H         LINE#         270
  C:0046H         LINE#         271
  C:0061H         LINE#         273
  C:0065H         LINE#         274
  -------         ENDPROC       _T6963_PRINTF
  -------         PROC          _OPEN_CURSOR
  D:0004H         SYMBOL        x
BL51 BANKED LINKER/LOCATER V6.22                                                      12/26/2013  14:36:30  PAGE 14


  D:0003H         SYMBOL        y
  D:0002H         SYMBOL        shape
  C:15DAH         LINE#         280
  C:15E0H         LINE#         281
  C:15E0H         LINE#         283
  C:15E5H         LINE#         285
  C:15ECH         LINE#         286
  -------         ENDPROC       _OPEN_CURSOR
  -------         PROC          NO_CURSOR
  C:007EH         LINE#         292
  C:007EH         LINE#         293
  C:007EH         LINE#         294
  -------         ENDPROC       NO_CURSOR
  -------         PROC          _DRAW_HORIZON
  D:004DH         SYMBOL        X
  D:004EH         SYMBOL        Y
  D:004FH         SYMBOL        Length
  -------         DO            
  D:0050H         SYMBOL        i
  -------         ENDDO         
  C:1492H         LINE#         301
  C:1498H         LINE#         302
  C:1498H         LINE#         304
  C:14A2H         LINE#         305
  C:14B0H         LINE#         306
  -------         ENDPROC       _DRAW_HORIZON
  -------         PROC          _DRAW_VERTICAL
  D:0014H         SYMBOL        X
  D:0015H         SYMBOL        Y
  D:0016H         SYMBOL        Length
  -------         DO            
  D:0017H         SYMBOL        i
  -------         ENDDO         
  C:14B1H         LINE#         311
  C:14B7H         LINE#         312
  C:14B7H         LINE#         314
  C:14C1H         LINE#         315
  C:14CFH         LINE#         316
  -------         ENDPROC       _DRAW_VERTICAL
  -------         PROC          _SET_COORDINATE
  D:0007H         SYMBOL        X
  D:0005H         SYMBOL        Y
  C:16D5H         LINE#         321
  C:16D5H         LINE#         322
  C:16D5H         LINE#         323
  C:16DDH         LINE#         324
  -------         ENDPROC       _SET_COORDINATE
  -------         ENDMOD        T6963

  -------         MODULE        UART
  C:0000H         SYMBOL        _ICE_DUMMY_
  D:0084H         PUBLIC        SFRPAGE
  D:00CCH         PUBLIC        TMR2
  D:00C9H         PUBLIC        TMR2CF
  D:00C8H         PUBLIC        TMR2CN
  B:0098H.1       PUBLIC        TI0
  B:00C8H.2       PUBLIC        TR2
BL51 BANKED LINKER/LOCATER V6.22                                                      12/26/2013  14:36:30  PAGE 15


  D:00CAH         PUBLIC        RCAP2
  D:0099H         PUBLIC        SBUF0
  C:1425H         PUBLIC        UART0_Init
  D:0098H         PUBLIC        SCON0
  D:0091H         PUBLIC        SSTA0
  C:155BH         PUBLIC        _putchar
  -------         PROC          UART0_INIT
  -------         DO            
  D:0007H         SYMBOL        SFRPAGE_SAVE
  -------         ENDDO         
  C:1425H         LINE#         24
  C:1425H         LINE#         25
  C:1425H         LINE#         28
  C:1427H         LINE#         30
  C:142AH         LINE#         32
  C:142CH         LINE#         34
  C:142FH         LINE#         36
  C:1435H         LINE#         37
  C:143BH         LINE#         38
  C:143DH         LINE#         40
  C:143FH         LINE#         42
  C:1442H         LINE#         45
  C:1445H         LINE#         50
  C:1447H         LINE#         52
  C:1449H         LINE#         53
  -------         ENDPROC       UART0_INIT
  -------         PROC          _PUTCHAR
  D:0007H         SYMBOL        c
  -------         DO            
  D:0006H         SYMBOL        SFRPAGE_SAVE
  -------         ENDDO         
  C:155BH         LINE#         69
  C:155BH         LINE#         70
  C:155BH         LINE#         71
  C:155DH         LINE#         73
  C:1560H         LINE#         75
  C:1563H         LINE#         76
  C:1563H         LINE#         77
  C:1566H         LINE#         78
  C:1568H         LINE#         79
  C:156BH         LINE#         80
  C:156BH         LINE#         82
  C:156EH         LINE#         83
  C:1570H         LINE#         85
  C:1572H         LINE#         87
  C:1574H         LINE#         89
  C:1574H         LINE#         90
  -------         ENDPROC       _PUTCHAR
  -------         ENDMOD        UART

  -------         MODULE        ADC0
  C:0000H         SYMBOL        _ICE_DUMMY_
  D:00BCH         PUBLIC        ADC0CF
  D:00E7H         PUBLIC        EIE2
  C:14EDH         PUBLIC        _ADC0_start
  D:00E8H         PUBLIC        ADC0CN
  D:0084H         PUBLIC        SFRPAGE
BL51 BANKED LINKER/LOCATER V6.22                                                      12/26/2013  14:36:30  PAGE 16


  C:1620H         PUBLIC        ADC0_get
  D:00D1H         PUBLIC        REF0CN
  D:00BAH         PUBLIC        AMX0CF
  B:00E8H.5       PUBLIC        AD0INT
  D:00BBH         PUBLIC        AMX0SL
  C:13FFH         PUBLIC        ADC0_ISR
  B:00E8H.7       PUBLIC        AD0EN
  C:15F3H         PUBLIC        ADC0_Init
  B:0021H.2       PUBLIC        ADC0_ready
  D:001CH         PUBLIC        ADC0_data
  D:00BEH         PUBLIC        ADC0
  B:00E8H.4       PUBLIC        AD0BUSY
  -------         PROC          ADC0_INIT
  -------         DO            
  D:0007H         SYMBOL        SFRPAGE_SAVE
  -------         ENDDO         
  C:15F3H         LINE#         43
  C:15F3H         LINE#         44
  C:15F3H         LINE#         45
  C:15F5H         LINE#         47
  C:15F8H         LINE#         49
  C:15FAH         LINE#         55
  C:15FDH         LINE#         57
  C:15FFH         LINE#         59
  C:1601H         LINE#         63
  C:1604H         LINE#         64
  C:1604H         LINE#         66
  C:1607H         LINE#         68
  C:1609H         LINE#         70
  C:160BH         LINE#         73
  -------         ENDPROC       ADC0_INIT
  -------         PROC          _ADC0_START
  D:0007H         SYMBOL        ch
  -------         DO            
  D:0006H         SYMBOL        SFRPAGE_SAVE
  D:0004H         SYMBOL        i
  -------         ENDDO         
  C:14EDH         LINE#         75
  C:14EDH         LINE#         76
  C:14EDH         LINE#         77
  C:14EFH         LINE#         79
  C:14F2H         LINE#         80
  C:14F4H         LINE#         81
  C:14F8H         LINE#         82
  C:14FAH         LINE#         83
  C:1507H         LINE#         84
  C:1509H         LINE#         85
  -------         ENDPROC       _ADC0_START
  -------         PROC          ADC0_GET
  -------         DO            
  D:0007H         SYMBOL        SFRPAGE_SAVE
  -------         ENDDO         
  C:1620H         LINE#         87
  C:1620H         LINE#         88
  C:1620H         LINE#         89
  C:1622H         LINE#         90
  C:1625H         LINE#         91
BL51 BANKED LINKER/LOCATER V6.22                                                      12/26/2013  14:36:30  PAGE 17


  C:1627H         LINE#         92
  C:1629H         LINE#         93
  C:1630H         LINE#         94
  -------         ENDPROC       ADC0_GET
  -------         PROC          ADC0_ISR
  -------         DO            
  D:0007H         SYMBOL        SFRPAGE_SAVE
  -------         ENDDO         
  C:13FFH         LINE#         99
  C:1408H         LINE#         101
  C:140AH         LINE#         103
  C:140DH         LINE#         104
  C:1413H         LINE#         105
  C:1415H         LINE#         106
  C:1417H         LINE#         107
  C:141CH         LINE#         108
  C:141EH         LINE#         109
  -------         ENDPROC       ADC0_ISR
  -------         ENDMOD        ADC0

  -------         MODULE        DAC
  C:0000H         SYMBOL        _ICE_DUMMY_
  D:00E7H         PUBLIC        EIE2
  C:1526H         PUBLIC        _Set_DAC_Frequent
  C:1674H         PUBLIC        _Set_DAC0
  C:1260H         PUBLIC        TIMER4_ISR
  C:1683H         PUBLIC        _Set_DAC1
  D:00D4H         PUBLIC        DAC0CN
  D:0084H         PUBLIC        SFRPAGE
  D:00D4H         PUBLIC        DAC1CN
  D:001AH         PUBLIC        PHASE_ADD
  D:00D1H         PUBLIC        REF0CN
  D:00CCH         PUBLIC        TMR4
  C:144AH         PUBLIC        _TIMER4_Init
  D:00C9H         PUBLIC        TMR4CF
  D:00C8H         PUBLIC        TMR4CN
  B:00C8H.7       PUBLIC        TF4
  B:00C8H.2       PUBLIC        TR4
  D:00CAH         PUBLIC        RCAP4
  C:10B8H         PUBLIC        Set_DACs_Sin_Cos
  C:1664H         PUBLIC        DAC0_Init
  C:1631H         PUBLIC        DAC1_Init
  D:00D2H         PUBLIC        DAC0
  D:00D2H         PUBLIC        DAC1
  C:0BECH         PUBLIC        SINE_TABLE
  -------         PROC          TIMER4_ISR
  C:1260H         LINE#         83
  C:127DH         LINE#         85
  C:127FH         LINE#         86
  C:1282H         LINE#         87
  -------         ENDPROC       TIMER4_ISR
  -------         PROC          DAC0_INIT
  -------         DO            
  D:0007H         SYMBOL        SFRPAGE_SAVE
  -------         ENDDO         
  C:1664H         LINE#         101
  C:1664H         LINE#         103
BL51 BANKED LINKER/LOCATER V6.22                                                      12/26/2013  14:36:30  PAGE 18


  C:1666H         LINE#         105
  C:1669H         LINE#         107
  C:166CH         LINE#         109
  C:166EH         LINE#         111
  C:1671H         LINE#         114
  C:1673H         LINE#         116
  -------         ENDPROC       DAC0_INIT
  -------         PROC          DAC1_INIT
  -------         DO            
  D:0007H         SYMBOL        SFRPAGE_SAVE
  -------         ENDDO         
  C:1631H         LINE#         130
  C:1631H         LINE#         132
  C:1633H         LINE#         134
  C:1636H         LINE#         136
  C:1639H         LINE#         138
  C:163CH         LINE#         140
  C:163FH         LINE#         143
  C:1641H         LINE#         145
  -------         ENDPROC       DAC1_INIT
  -------         PROC          _TIMER4_INIT
  D:0006H         SYMBOL        counts
  -------         DO            
  D:0005H         SYMBOL        SFRPAGE_SAVE
  -------         ENDDO         
  C:144AH         LINE#         162
  C:144AH         LINE#         163
  C:144AH         LINE#         164
  C:144CH         LINE#         166
  C:144FH         LINE#         168
  C:1452H         LINE#         171
  C:1455H         LINE#         174
  C:1461H         LINE#         175
  C:1467H         LINE#         177
  C:146AH         LINE#         178
  C:146CH         LINE#         180
  C:146EH         LINE#         181
  -------         ENDPROC       _TIMER4_INIT
  -------         PROC          SET_DACS_SIN_COS
  -------         DO            
  D:0001H         SYMBOL        SFRPAGE_SAVE
  D:0018H         SYMBOL        phase_acc
  D:0004H         SYMBOL        SIN_temp
  D:0006H         SYMBOL        COS_temp
  D:0007H         SYMBOL        index
  -------         ENDDO         
  C:10B8H         LINE#         196
  C:10B8H         LINE#         197
  C:10B8H         LINE#         198
  C:10BAH         LINE#         205
  C:10C6H         LINE#         206
  C:10C7H         LINE#         208
  C:10DCH         LINE#         210
  C:10DFH         LINE#         211
  C:10F4H         LINE#         220
  C:10F7H         LINE#         221
  C:10FEH         LINE#         223
BL51 BANKED LINKER/LOCATER V6.22                                                      12/26/2013  14:36:30  PAGE 19


  C:1101H         LINE#         224
  C:1108H         LINE#         226
  C:110AH         LINE#         228
  -------         ENDPROC       SET_DACS_SIN_COS
  -------         PROC          _SET_DAC0
  D:0006H         SYMBOL        value
  -------         DO            
  D:0005H         SYMBOL        SFRPAGE_SAVE
  -------         ENDDO         
  C:1674H         LINE#         230
  C:1674H         LINE#         231
  C:1674H         LINE#         232
  C:1676H         LINE#         233
  C:1679H         LINE#         234
  C:1680H         LINE#         235
  C:1682H         LINE#         236
  -------         ENDPROC       _SET_DAC0
  -------         PROC          _SET_DAC1
  D:0006H         SYMBOL        value
  -------         DO            
  D:0005H         SYMBOL        SFRPAGE_SAVE
  -------         ENDDO         
  C:1683H         LINE#         238
  C:1683H         LINE#         239
  C:1683H         LINE#         240
  C:1685H         LINE#         241
  C:1688H         LINE#         242
  C:168FH         LINE#         243
  C:1691H         LINE#         244
  -------         ENDPROC       _SET_DAC1
  -------         PROC          _SET_DAC_FREQUENT
  D:0006H         SYMBOL        f
  C:1526H         LINE#         246
  C:1526H         LINE#         247
  C:1526H         LINE#         248
  C:1540H         LINE#         249
  -------         ENDPROC       _SET_DAC_FREQUENT
  -------         ENDMOD        DAC

  -------         MODULE        DELAY
  C:0000H         SYMBOL        _ICE_DUMMY_
  D:0084H         PUBLIC        SFRPAGE
  D:00CCH         PUBLIC        TMR3
  D:00C9H         PUBLIC        TMR3CF
  D:00C8H         PUBLIC        TMR3CN
  B:00C8H.7       PUBLIC        TF3
  C:13D2H         PUBLIC        _delay_ms
  B:00C8H.2       PUBLIC        TR3
  D:00CAH         PUBLIC        RCAP3
  -------         PROC          _DELAY_MS
  D:0006H         SYMBOL        ms
  -------         DO            
  D:0005H         SYMBOL        SFRPAGE_SAVE
  -------         ENDDO         
  C:13D2H         LINE#         22
  C:13D2H         LINE#         23
  C:13D2H         LINE#         24
BL51 BANKED LINKER/LOCATER V6.22                                                      12/26/2013  14:36:30  PAGE 20


  C:13D4H         LINE#         26
  C:13D7H         LINE#         28
  C:13DAH         LINE#         29
  C:13DCH         LINE#         31
  C:13E2H         LINE#         32
  C:13E8H         LINE#         34
  C:13EAH         LINE#         36
  C:13EEH         LINE#         37
  C:13EEH         LINE#         38
  C:13F0H         LINE#         39
  C:13F3H         LINE#         40
  C:13F8H         LINE#         41
  C:13FAH         LINE#         43
  C:13FCH         LINE#         45
  C:13FEH         LINE#         46
  -------         ENDPROC       _DELAY_MS
  -------         ENDMOD        DELAY

  -------         MODULE        INIT
  C:0000H         SYMBOL        _ICE_DUMMY_
  D:008FH         PUBLIC        PLL0FLT
  D:008EH         PUBLIC        PLL0MUL
  D:0084H         PUBLIC        SFRPAGE
  D:00A4H         PUBLIC        P0MDOUT
  D:00A5H         PUBLIC        P1MDOUT
  D:00A6H         PUBLIC        P2MDOUT
  D:00A7H         PUBLIC        P3MDOUT
  D:009CH         PUBLIC        P4MDOUT
  D:009DH         PUBLIC        P5MDOUT
  D:009EH         PUBLIC        P6MDOUT
  D:009FH         PUBLIC        P7MDOUT
  D:00A3H         PUBLIC        EMI0CF
  C:1642H         PUBLIC        EMIF_Init
  D:00E1H         PUBLIC        XBR0
  D:00E2H         PUBLIC        XBR1
  D:00A2H         PUBLIC        EMI0CN
  D:00E3H         PUBLIC        XBR2
  D:00A1H         PUBLIC        EMI0TC
  D:0089H         PUBLIC        PLL0CN
  C:146FH         PUBLIC        PORT_Init
  D:0097H         PUBLIC        CLKSEL
  D:008CH         PUBLIC        OSCXCN
  C:1376H         PUBLIC        PLL_Init
  D:00B7H         PUBLIC        FLSCL
  D:008DH         PUBLIC        PLL0DIV
  -------         PROC          PORT_INIT
  -------         DO            
  D:0007H         SYMBOL        SFRPAGE_save
  -------         ENDDO         
  C:146FH         LINE#         108
  C:146FH         LINE#         109
  C:146FH         LINE#         110
  C:1471H         LINE#         112
  C:1474H         LINE#         114
  C:1477H         LINE#         115
  C:147AH         LINE#         117
  C:147DH         LINE#         124
BL51 BANKED LINKER/LOCATER V6.22                                                      12/26/2013  14:36:30  PAGE 21


  C:1480H         LINE#         125
  C:1483H         LINE#         128
  C:1486H         LINE#         129
  C:1486H         LINE#         130
  C:1486H         LINE#         132
  C:1489H         LINE#         133
  C:148CH         LINE#         134
  C:148FH         LINE#         137
  C:1491H         LINE#         138
  -------         ENDPROC       PORT_INIT
  -------         PROC          PLL_INIT
  -------         DO            
  D:0007H         SYMBOL        n
  -------         ENDDO         
  C:1376H         LINE#         151
  C:1376H         LINE#         152
  C:1376H         LINE#         155
  C:1379H         LINE#         157
  C:137CH         LINE#         162
  C:137FH         LINE#         164
  C:1382H         LINE#         165
  C:1385H         LINE#         166
  C:1388H         LINE#         168
  C:138BH         LINE#         169
  C:138EH         LINE#         170
  C:1391H         LINE#         171
  C:1394H         LINE#         173
  C:1398H         LINE#         174
  C:139BH         LINE#         175
  C:13A0H         LINE#         177
  C:13A3H         LINE#         179
  -------         ENDPROC       PLL_INIT
  -------         PROC          EMIF_INIT
  -------         DO            
  D:0007H         SYMBOL        SFRPAGE_save
  -------         ENDDO         
  C:1642H         LINE#         194
  C:1642H         LINE#         195
  C:1642H         LINE#         196
  C:1644H         LINE#         198
  C:1647H         LINE#         200
  C:164AH         LINE#         202
  C:164DH         LINE#         204
  C:1650H         LINE#         206
  C:1652H         LINE#         207
  -------         ENDPROC       EMIF_INIT
  -------         ENDMOD        INIT

  -------         MODULE        PNL_30A
  C:0000H         SYMBOL        _ICE_DUMMY_
  C:1653H         PUBLIC        PNL_30A_Key_return
  B:00A8H.7       PUBLIC        EA
  C:130DH         PUBLIC        PNL_30A_Buzzer_on
  C:11E2H         PUBLIC        _PNL_30A_Led_set
  C:16AEH         PUBLIC        PNL_30A_Key_get
  C:1692H         PUBLIC        PNL_30A_Configuration
  D:0008H         PUBLIC        cmd_state
BL51 BANKED LINKER/LOCATER V6.22                                                      12/26/2013  14:36:30  PAGE 22


  B:00A8H.0       PUBLIC        EX0
  B:0088H.0       PUBLIC        IT0
  D:000AH         PUBLIC        PNL_Group
  D:000CH         PUBLIC        PNL_ready
  C:12D6H         PUBLIC        PNL_30A_Buzzer_off
  D:000DH         PUBLIC        PNL_Key
  C:0E9DH         PUBLIC        EXTI0_IRQHandler
  -------         PROC          PNL_30A_CONFIGURATION
  C:1692H         LINE#         24
  C:1692H         LINE#         25
  C:1692H         LINE#         26
  C:1697H         LINE#         27
  C:169AH         LINE#         32
  C:169CH         LINE#         33
  C:169EH         LINE#         34
  C:16A0H         LINE#         37
  -------         ENDPROC       PNL_30A_CONFIGURATION
  -------         PROC          _PNL_30A_LED_SET
  D:0007H         SYMBOL        led
  -------         DO            
  D:0004H         SYMBOL        i
  D:0006H         SYMBOL        t
  -------         ENDDO         
  C:11E2H         LINE#         46
  C:11E2H         LINE#         47
  C:11E2H         LINE#         48
  C:11E5H         LINE#         50
  C:11EBH         LINE#         51
  C:11FCH         LINE#         52
  C:1206H         LINE#         53
  C:1206H         LINE#         54
  C:120AH         LINE#         55
  C:120DH         LINE#         56
  C:1213H         LINE#         57
  C:1218H         LINE#         58
  C:1222H         LINE#         60
  -------         ENDPROC       _PNL_30A_LED_SET
  -------         PROC          PNL_30A_BUZZER_OFF
  -------         DO            
  D:0006H         SYMBOL        i
  D:0004H         SYMBOL        t
  -------         ENDDO         
  C:12D6H         LINE#         69
  C:12D6H         LINE#         70
  C:12D6H         LINE#         71
  C:12D9H         LINE#         73
  C:12DFH         LINE#         74
  C:12E6H         LINE#         75
  C:12F0H         LINE#         76
  C:12F0H         LINE#         77
  C:12F4H         LINE#         78
  C:12F7H         LINE#         79
  C:12FDH         LINE#         80
  C:1302H         LINE#         81
  C:130CH         LINE#         83
  -------         ENDPROC       PNL_30A_BUZZER_OFF
  -------         PROC          PNL_30A_BUZZER_ON
BL51 BANKED LINKER/LOCATER V6.22                                                      12/26/2013  14:36:30  PAGE 23


  -------         DO            
  D:0006H         SYMBOL        i
  D:0004H         SYMBOL        t
  -------         ENDDO         
  C:130DH         LINE#         91
  C:130DH         LINE#         92
  C:130DH         LINE#         93
  C:1310H         LINE#         95
  C:1316H         LINE#         96
  C:131DH         LINE#         97
  C:1327H         LINE#         98
  C:1327H         LINE#         99
  C:132BH         LINE#         100
  C:132EH         LINE#         101
  C:1334H         LINE#         102
  C:1339H         LINE#         103
  C:1343H         LINE#         105
  -------         ENDPROC       PNL_30A_BUZZER_ON
  -------         PROC          PNL_30A_KEY_RETURN
  C:1653H         LINE#         115
  C:1653H         LINE#         116
  C:1653H         LINE#         117
  C:1658H         LINE#         118
  C:1658H         LINE#         119
  C:165BH         LINE#         120
  C:1660H         LINE#         121
  C:1660H         LINE#         122
  C:1663H         LINE#         123
  -------         ENDPROC       PNL_30A_KEY_RETURN
  -------         PROC          PNL_30A_KEY_GET
  C:16AEH         LINE#         132
  C:16AEH         LINE#         133
  C:16AEH         LINE#         134
  C:16B2H         LINE#         135
  C:16B5H         LINE#         136
  C:16B9H         LINE#         137
  -------         ENDPROC       PNL_30A_KEY_GET
  -------         PROC          EXTI0_IRQHANDLER
  -------         DO            
  D:0004H         SYMBOL        Temp_Key
  D:0002H         SYMBOL        i
  -------         ENDDO         
  C:0E9DH         LINE#         161
  C:0EB4H         LINE#         166
  C:0EBBH         LINE#         167
  C:0EC4H         LINE#         168
  C:0EC7H         LINE#         169
  C:0EC7H         LINE#         170
  C:0EE9H         LINE#         171
  C:0EE9H         LINE#         172
  C:0F07H         LINE#         173
  C:0F0AH         LINE#         174
  C:0F0CH         LINE#         175
  C:0F0CH         LINE#         176
  C:0F17H         LINE#         177
  -------         ENDPROC       EXTI0_IRQHANDLER
  -------         ENDMOD        PNL_30A
BL51 BANKED LINKER/LOCATER V6.22                                                      12/26/2013  14:36:30  PAGE 24



  -------         MODULE        KEY_MAP
  C:0000H         SYMBOL        _ICE_DUMMY_
  C:103CH         PUBLIC        key_map
  -------         ENDMOD        KEY_MAP

  -------         MODULE        ?C?COPY
  C:0970H         PUBLIC        ?C?COPY
  -------         ENDMOD        ?C?COPY

  -------         MODULE        ?C?SCDIV
  C:0996H         PUBLIC        ?C?SCDIV
  -------         ENDMOD        ?C?SCDIV

  -------         MODULE        ?C?CLDPTR
  C:09B8H         PUBLIC        ?C?CLDPTR
  -------         ENDMOD        ?C?CLDPTR

  -------         MODULE        ?C?CSTOPTR
  C:09D1H         PUBLIC        ?C?CSTOPTR
  -------         ENDMOD        ?C?CSTOPTR

  -------         MODULE        ?C?IMUL
  C:09F3H         PUBLIC        ?C?IMUL
  -------         ENDMOD        ?C?IMUL

  -------         MODULE        ?C?UIDIV
  C:0A05H         PUBLIC        ?C?UIDIV
  -------         ENDMOD        ?C?UIDIV

  -------         MODULE        ?C?LMUL
  C:0A5AH         PUBLIC        ?C?LMUL
  -------         ENDMOD        ?C?LMUL

  -------         MODULE        ?C?SLDIV
  C:119EH         PUBLIC        ?C?SLDIV
  -------         ENDMOD        ?C?SLDIV

  -------         MODULE        ?C?CCASE
  C:0AA9H         PUBLIC        ?C?CCASE
  -------         ENDMOD        ?C?CCASE

  -------         MODULE        VSPRINTF
  D:0063H         PUBLIC        ?_VSPRINTF?BYTE
  C:13A4H         PUBLIC        _VSPRINTF
  -------         ENDMOD        VSPRINTF

  -------         MODULE        ?C?ULDIV
  C:0B0BH         PUBLIC        ?C?ULDIV
  -------         ENDMOD        ?C?ULDIV

  -------         MODULE        PRINTF
  D:006CH         PUBLIC        ?_PRINTF517?BYTE
  D:006CH         PUBLIC        ?_PRINTF?BYTE
  D:006CH         PUBLIC        ?_SPRINTF517?BYTE
  D:006CH         PUBLIC        ?_SPRINTF?BYTE
  C:05A6H         PUBLIC        _PRINTF
BL51 BANKED LINKER/LOCATER V6.22                                                      12/26/2013  14:36:30  PAGE 25


  C:05A6H         PUBLIC        _PRINTF517
  C:05A0H         PUBLIC        _SPRINTF
  C:05A0H         PUBLIC        _SPRINTF517
  -------         ENDMOD        PRINTF

  -------         MODULE        ?C?CLDOPTR
  C:0B9DH         PUBLIC        ?C?CLDOPTR
  -------         ENDMOD        ?C?CLDOPTR

  -------         MODULE        ?C?CSTPTR
  C:0BCAH         PUBLIC        ?C?CSTPTR
  -------         ENDMOD        ?C?CSTPTR

  -------         MODULE        ?C?PLDIIDATA
  C:0BDCH         PUBLIC        ?C?PLDIIDATA
  -------         ENDMOD        ?C?PLDIIDATA

*** WARNING L16: UNCALLED SEGMENT, IGNORED FOR OVERLAY PROCESS
    SEGMENT: ?PR?RUN?MAIN

*** WARNING L16: UNCALLED SEGMENT, IGNORED FOR OVERLAY PROCESS
    SEGMENT: ?PR?CHECK_STATE_2?T6963

*** WARNING L16: UNCALLED SEGMENT, IGNORED FOR OVERLAY PROCESS
    SEGMENT: ?PR?CHECK_STATE_3?T6963

*** WARNING L16: UNCALLED SEGMENT, IGNORED FOR OVERLAY PROCESS
    SEGMENT: ?PR?CHECK_STATE_5?T6963

*** WARNING L16: UNCALLED SEGMENT, IGNORED FOR OVERLAY PROCESS
    SEGMENT: ?PR?CHECK_STATE_6?T6963

*** WARNING L16: UNCALLED SEGMENT, IGNORED FOR OVERLAY PROCESS
    SEGMENT: ?PR?CHECK_STATE_7?T6963

*** WARNING L16: UNCALLED SEGMENT, IGNORED FOR OVERLAY PROCESS
    SEGMENT: ?PR?RD_DATA?T6963

*** WARNING L16: UNCALLED SEGMENT, IGNORED FOR OVERLAY PROCESS
    SEGMENT: ?PR?T6963_LCD_BACK?T6963

*** WARNING L16: UNCALLED SEGMENT, IGNORED FOR OVERLAY PROCESS
    SEGMENT: ?PR?_T6963_ERASE_POINT?T6963

*** WARNING L16: UNCALLED SEGMENT, IGNORED FOR OVERLAY PROCESS
    SEGMENT: ?PR?_T6963_PUTS?T6963

*** WARNING L16: UNCALLED SEGMENT, IGNORED FOR OVERLAY PROCESS
    SEGMENT: ?PR?_DRAW_VERTICAL?T6963

*** WARNING L16: UNCALLED SEGMENT, IGNORED FOR OVERLAY PROCESS
    SEGMENT: ?PR?ADC0_INIT?ADC0

*** WARNING L16: UNCALLED SEGMENT, IGNORED FOR OVERLAY PROCESS
    SEGMENT: ?PR?_ADC0_START?ADC0

*** WARNING L16: UNCALLED SEGMENT, IGNORED FOR OVERLAY PROCESS
BL51 BANKED LINKER/LOCATER V6.22                                                      12/26/2013  14:36:30  PAGE 26


    SEGMENT: ?PR?ADC0_GET?ADC0

*** WARNING L16: UNCALLED SEGMENT, IGNORED FOR OVERLAY PROCESS
    SEGMENT: ?PR?DAC0_INIT?DAC

*** WARNING L16: UNCALLED SEGMENT, IGNORED FOR OVERLAY PROCESS
    SEGMENT: ?PR?DAC1_INIT?DAC

*** WARNING L16: UNCALLED SEGMENT, IGNORED FOR OVERLAY PROCESS
    SEGMENT: ?PR?_SET_DAC0?DAC

*** WARNING L16: UNCALLED SEGMENT, IGNORED FOR OVERLAY PROCESS
    SEGMENT: ?PR?_SET_DAC1?DAC

*** WARNING L16: UNCALLED SEGMENT, IGNORED FOR OVERLAY PROCESS
    SEGMENT: ?PR?_SET_DAC_FREQUENT?DAC

*** WARNING L16: UNCALLED SEGMENT, IGNORED FOR OVERLAY PROCESS
    SEGMENT: ?PR?_PNL_30A_LED_SET?PNL_30A

*** WARNING L16: UNCALLED SEGMENT, IGNORED FOR OVERLAY PROCESS
    SEGMENT: ?PR?PNL_30A_BUZZER_OFF?PNL_30A

*** WARNING L16: UNCALLED SEGMENT, IGNORED FOR OVERLAY PROCESS
    SEGMENT: ?PR?PNL_30A_BUZZER_ON?PNL_30A

Program Size: data=127.3 xdata=50 code=5899
LINK/LOCATE RUN COMPLETE.  22 WARNING(S),  0 ERROR(S)
